; Function Attrs: null_pointer_is_valid sspstrong uwtable
define internal i32 @dissect_auto_rp(ptr noundef %0, ptr noundef readonly captures(none) %1, ptr noundef %2, ptr readnone captures(none) %3) #0 {
  %5 = getelementptr inbounds nuw i8, ptr %1, i64 8
  %6 = load ptr, ptr %5, align 8
  tail call void @col_set_str(ptr noundef %6, i32 noundef 35, ptr noundef nonnull @.str.34)
  %7 = load ptr, ptr %5, align 8
  tail call void @col_clear(ptr noundef %7, i32 noundef 25)
  %8 = tail call zeroext i8 @tvb_get_uint8(ptr noundef %0, i32 noundef 0)
  %9 = tail call zeroext i8 @tvb_get_uint8(ptr noundef %0, i32 noundef 1)
  %10 = load ptr, ptr %5, align 8
  %11 = zext i8 %8 to i32
  %12 = and i32 %11, 15
  %13 = tail call ptr @val_to_str_const(i32 noundef %12, ptr noundef nonnull @auto_rp_type_vals, ptr noundef nonnull @.str.51)
  %14 = lshr i32 %11, 4
  %15 = tail call ptr @val_to_str_const(i32 noundef %14, ptr noundef nonnull @auto_rp_ver_vals, ptr noundef nonnull @.str.51)
  %16 = zext i8 %9 to i32
  %17 = icmp eq i8 %9, 1
  %18 = select i1 %17, ptr @.str.52, ptr @.str.53
  tail call void (ptr, i32, ptr, ...) @col_add_fstr(ptr noundef %10, i32 noundef 25, ptr noundef nonnull @.str.50, ptr noundef %13, ptr noundef %15, i32 noundef %16, ptr noundef nonnull %18)
  %.not = icmp eq ptr %2, null
  br i1 %.not, label %86, label %19

19:                                               ; preds = %4
  %20 = load i32, ptr @proto_auto_rp, align 4
  %21 = tail call ptr @proto_tree_add_item(ptr noundef nonnull %2, i32 noundef %20, ptr noundef %0, i32 noundef 0, i32 noundef -1, i32 noundef 0)
  %22 = load i32, ptr @ett_auto_rp, align 4
  %23 = tail call ptr @proto_item_add_subtree(ptr noundef %21, i32 noundef %22)
  %24 = load i32, ptr @ett_auto_rp_ver_type, align 4
  %25 = tail call ptr @val_to_str_const(i32 noundef %14, ptr noundef nonnull @auto_rp_ver_vals, ptr noundef nonnull @.str.51)
  %26 = tail call ptr @val_to_str_const(i32 noundef %12, ptr noundef nonnull @auto_rp_type_vals, ptr noundef nonnull @.str.51)
  %27 = tail call ptr (ptr, ptr, i32, i32, i32, ptr, ptr, ...) @proto_tree_add_subtree_format(ptr noundef %23, ptr noundef %0, i32 noundef 0, i32 noundef 1, i32 noundef %24, ptr noundef null, ptr noundef nonnull @.str.54, ptr noundef %25, ptr noundef %26)
  %28 = load i32, ptr @hf_auto_rp_version, align 4
  %29 = tail call ptr @proto_tree_add_uint(ptr noundef %27, i32 noundef %28, ptr noundef %0, i32 noundef 0, i32 noundef 1, i32 noundef %11)
  %30 = load i32, ptr @hf_auto_rp_type, align 4
  %31 = tail call ptr @proto_tree_add_uint(ptr noundef %27, i32 noundef %30, ptr noundef %0, i32 noundef 0, i32 noundef 1, i32 noundef %11)
  %32 = load i32, ptr @hf_auto_rp_count, align 4
  %33 = tail call ptr @proto_tree_add_uint(ptr noundef %23, i32 noundef %32, ptr noundef %0, i32 noundef 1, i32 noundef 1, i32 noundef %16)
  %34 = tail call zeroext i16 @tvb_get_ntohs(ptr noundef %0, i32 noundef 2)
  %35 = load i32, ptr @hf_auto_rp_holdtime, align 4
  %36 = zext i16 %34 to i32
  %37 = icmp eq i16 %34, 1
  %38 = select i1 %37, ptr @.str.52, ptr @.str.53
  %39 = tail call ptr (ptr, i32, ptr, i32, i32, i32, ptr, ...) @proto_tree_add_uint_format_value(ptr noundef %23, i32 noundef %35, ptr noundef %0, i32 noundef 2, i32 noundef 2, i32 noundef %36, ptr noundef nonnull @.str.55, i32 noundef %36, ptr noundef nonnull %38)
  %40 = load i32, ptr @hf_auto_rp_reserved, align 4
  %41 = tail call ptr @proto_tree_add_item(ptr noundef %23, i32 noundef %40, ptr noundef %0, i32 noundef 4, i32 noundef 4, i32 noundef 0)
  %.not62 = icmp eq i8 %9, 0
  br i1 %.not62, label %._crit_edge, label %.lr.ph

.lr.ph:                                           ; preds = %19
  %42 = getelementptr inbounds nuw i8, ptr %1, i64 408
  br label %43

43:                                               ; preds = %.lr.ph, %do_auto_rp_map.exit
  %.061 = phi i32 [ 0, %.lr.ph ], [ %80, %do_auto_rp_map.exit ]
  %.05860 = phi i32 [ 8, %.lr.ph ], [ %.0.lcssa.i, %do_auto_rp_map.exit ]
  %44 = load ptr, ptr %42, align 8
  %45 = add i32 %.05860, 5
  %46 = tail call zeroext i8 @tvb_get_uint8(ptr noundef %0, i32 noundef %45)
  %47 = zext i8 %46 to i32
  %48 = mul nuw nsw i32 %47, 6
  %49 = add nuw nsw i32 %48, 6
  %50 = load i32, ptr @ett_auto_rp_map, align 4
  %51 = tail call ptr @tvb_address_to_str(ptr noundef %44, ptr noundef %0, i32 noundef 2, i32 noundef %.05860)
  %52 = icmp eq i8 %46, 1
  %53 = select i1 %52, ptr @.str.52, ptr @.str.53
  %54 = tail call ptr (ptr, ptr, i32, i32, i32, ptr, ptr, ...) @proto_tree_add_subtree_format(ptr noundef %23, ptr noundef %0, i32 noundef %.05860, i32 noundef %49, i32 noundef %50, ptr noundef null, ptr noundef nonnull @.str.56, ptr noundef %51, i32 noundef %47, ptr noundef nonnull %53)
  %55 = load i32, ptr @hf_auto_rp_rp_addr, align 4
  %56 = tail call ptr @proto_tree_add_item(ptr noundef %54, i32 noundef %55, ptr noundef %0, i32 noundef %.05860, i32 noundef 4, i32 noundef 0)
  %57 = add i32 %.05860, 4
  %58 = load i32, ptr @hf_auto_rp_pim_ver, align 4
  %59 = tail call ptr @proto_tree_add_item(ptr noundef %54, i32 noundef %58, ptr noundef %0, i32 noundef %57, i32 noundef 1, i32 noundef 0)
  %60 = load i32, ptr @hf_auto_rp_group_num, align 4
  %61 = tail call ptr @proto_tree_add_uint(ptr noundef %54, i32 noundef %60, ptr noundef %0, i32 noundef %45, i32 noundef 1, i32 noundef %47)
  %.054.i = add i32 %.05860, 6
  %.not.i = icmp eq i8 %46, 0
  br i1 %.not.i, label %do_auto_rp_map.exit, label %.lr.ph.i

.lr.ph.i:                                         ; preds = %43, %.lr.ph.i
  %.057.i = phi i32 [ %.0.i, %.lr.ph.i ], [ %.054.i, %43 ]
  %.0.in56.i = phi i32 [ %.057.i, %.lr.ph.i ], [ %.05860, %43 ]
  %.05355.i = phi i32 [ %79, %.lr.ph.i ], [ 0, %43 ]
  %62 = tail call zeroext i8 @tvb_get_uint8(ptr noundef %0, i32 noundef %.057.i)
  %63 = add i32 %.0.in56.i, 7
  %64 = tail call zeroext i8 @tvb_get_uint8(ptr noundef %0, i32 noundef %63)
  %65 = load i32, ptr @ett_auto_rp_group, align 4
  %66 = add i32 %.0.in56.i, 8
  %67 = tail call ptr @tvb_address_to_str(ptr noundef %44, ptr noundef %0, i32 noundef 2, i32 noundef %66)
  %68 = zext i8 %64 to i32
  %69 = zext i8 %62 to i32
  %70 = and i32 %69, 1
  %71 = tail call ptr @val_to_str_const(i32 noundef %70, ptr noundef nonnull @auto_rp_mask_sign_vals, ptr noundef nonnull @.str.52)
  %72 = tail call ptr (ptr, ptr, i32, i32, i32, ptr, ptr, ...) @proto_tree_add_subtree_format(ptr noundef %54, ptr noundef %0, i32 noundef %.057.i, i32 noundef 6, i32 noundef %65, ptr noundef null, ptr noundef nonnull @.str.57, ptr noundef %67, i32 noundef %68, ptr noundef %71)
  %73 = load i32, ptr @hf_auto_rp_prefix_sgn, align 4
  %74 = tail call ptr @proto_tree_add_uint(ptr noundef %72, i32 noundef %73, ptr noundef %0, i32 noundef %.057.i, i32 noundef 1, i32 noundef %69)
  %75 = load i32, ptr @hf_auto_rp_mask_len, align 4
  %76 = tail call ptr @proto_tree_add_uint(ptr noundef %72, i32 noundef %75, ptr noundef %0, i32 noundef %63, i32 noundef 1, i32 noundef %68)
  %77 = load i32, ptr @hf_auto_rp_group_prefix, align 4
  %78 = tail call ptr @proto_tree_add_item(ptr noundef %72, i32 noundef %77, ptr noundef %0, i32 noundef %66, i32 noundef 4, i32 noundef 0)
  %79 = add nuw nsw i32 %.05355.i, 1
  %.0.i = add i32 %.057.i, 6
  %exitcond.not.i = icmp eq i32 %79, %47
  br i1 %exitcond.not.i, label %do_auto_rp_map.exit, label %.lr.ph.i, !llvm.loop !6

do_auto_rp_map.exit:                              ; preds = %.lr.ph.i, %43
  %.0.lcssa.i = phi i32 [ %.054.i, %43 ], [ %.0.i, %.lr.ph.i ]
  %80 = add nuw nsw i32 %.061, 1
  %exitcond.not = icmp eq i32 %80, %16
  br i1 %exitcond.not, label %._crit_edge, label %43, !llvm.loop !8

._crit_edge:                                      ; preds = %do_auto_rp_map.exit, %19
  %.058.lcssa = phi i32 [ 8, %19 ], [ %.0.lcssa.i, %do_auto_rp_map.exit ]
  %81 = tail call i32 @tvb_reported_length_remaining(ptr noundef %0, i32 noundef %.058.lcssa)
  %82 = icmp sgt i32 %81, 0
  br i1 %82, label %83, label %86

83:                                               ; preds = %._crit_edge
  %84 = load i32, ptr @hf_auto_rp_trailing_junk, align 4
  %85 = tail call ptr @proto_tree_add_item(ptr noundef nonnull %2, i32 noundef %84, ptr noundef %0, i32 noundef %.058.lcssa, i32 noundef -1, i32 noundef 0)
  br label %86

86:                                               ; preds = %._crit_edge, %83, %4
  %87 = tail call i32 @tvb_captured_length(ptr noundef %0)
  ret i32 %87
}